target datalayout = "e-m:e-p270:32:32-p271:32:32-p272:64:64-i64:64-i128:128-f80:128-n8:16:32:64-S128"
target triple = "x86_64-pc-linux-gnu"

%struct.pmix_class_t = type { ptr, ptr, ptr, ptr, i32, i32, ptr, ptr, i64 }
%struct.pmix_list_t = type { %struct.pmix_object_t, %struct.pmix_list_item_t, i64 }
%struct.pmix_object_t = type { %union.pthread_mutex_t, ptr, i32, %struct.pmix_tma }
%union.pthread_mutex_t = type { %struct.__pthread_mutex_s }
%struct.__pthread_mutex_s = type { i32, i32, i32, i32, i32, i16, i16, %struct.__pthread_internal_list }
%struct.__pthread_internal_list = type { ptr, ptr }
%struct.pmix_tma = type { ptr, ptr, ptr, ptr, ptr, ptr, ptr, ptr }
%struct.pmix_list_item_t = type { %struct.pmix_object_t, ptr, ptr, i32 }
%struct.prte_rml_base_t = type { i32, i32, i32, i32, %struct.pmix_list_t, %struct.pmix_list_t, i32, %struct.pmix_list_t, i32, i8 }
%struct.pmix_output_desc_t = type { i8, i8, i32, i8, i32, ptr, ptr, i32, ptr, i32, i8, i8, i8, i8, ptr, i32, i32 }
%struct.pmix_proc = type { [256 x i8], i32 }
%struct.prte_process_info_t = type { %struct.pmix_proc, %struct.pmix_proc, ptr, %struct.pmix_proc, i32, i32, i32, ptr, ptr, i32, i8, ptr, i16, ptr, ptr, i8, ptr, i8 }

@prte_rml_base = external global %struct.prte_rml_base_t, align 8
@pmix_output_info = external global [0 x %struct.pmix_output_desc_t], align 8
@.str.5 = private unnamed_addr constant [19 x i8] c"filem_raw_module.c\00", align 1
@prte_process_info = external global %struct.prte_process_info_t, align 8
@.str.6 = private unnamed_addr constant [37 x i8] c"PMIX ERROR: %s in file %s at line %d\00", align 1
@.str.11 = private unnamed_addr constant [26 x i8] c"RML-SEND(%s:%d): %s:%s:%d\00", align 1
@__func__.send_complete = private unnamed_addr constant [14 x i8] c"send_complete\00", align 1
@.str.12 = private unnamed_addr constant [37 x i8] c"PRTE ERROR: %s in file %s at line %d\00", align 1
@.str.13 = private unnamed_addr constant [21 x i8] c"pthread_mutex_lock()\00", align 1

; Function Attrs: inlinehint nounwind uwtable
define internal void @pmix_tma_free(ptr noundef %0, ptr noundef %1) #2 {
  %3 = alloca ptr, align 8
  %4 = alloca ptr, align 8
  store ptr %0, ptr %3, align 8, !tbaa !129
  store ptr %1, ptr %4, align 8, !tbaa !38
  %5 = load ptr, ptr %3, align 8, !tbaa !129
  %6 = icmp ne ptr null, %5
  br i1 %6, label %7, label %13

7:                                                ; preds = %2
  %8 = load ptr, ptr %3, align 8, !tbaa !129
  %9 = getelementptr inbounds nuw %struct.pmix_tma, ptr %8, i32 0, i32 5
  %10 = load ptr, ptr %9, align 8, !tbaa !161
  %11 = load ptr, ptr %3, align 8, !tbaa !129
  %12 = load ptr, ptr %4, align 8, !tbaa !38
  call void %10(ptr noundef %11, ptr noundef %12)
  br label %15

13:                                               ; preds = %2
  %14 = load ptr, ptr %4, align 8, !tbaa !38
  call void @free(ptr noundef %14) #13
  br label %15

15:                                               ; preds = %13, %7
  ret void
}

; Function Attrs: inlinehint nounwind uwtable
define internal void @pmix_obj_run_destructors(ptr noundef %0) #2 {
  %2 = alloca ptr, align 8
  %3 = alloca ptr, align 8
  store ptr %0, ptr %2, align 8, !tbaa !31
  call void @llvm.lifetime.start.p0(i64 8, ptr %3) #13
  %4 = load ptr, ptr %2, align 8, !tbaa !31
  %5 = getelementptr inbounds nuw %struct.pmix_object_t, ptr %4, i32 0, i32 1
  %6 = load ptr, ptr %5, align 8, !tbaa !13
  %7 = getelementptr inbounds nuw %struct.pmix_class_t, ptr %6, i32 0, i32 7
  %8 = load ptr, ptr %7, align 8, !tbaa !159
  store ptr %8, ptr %3, align 8, !tbaa !38
  br label %9

9:                                                ; preds = %13, %1
  %10 = load ptr, ptr %3, align 8, !tbaa !38
  %11 = load ptr, ptr %10, align 8, !tbaa !38
  %12 = icmp ne ptr null, %11
  br i1 %12, label %13, label %19

13:                                               ; preds = %9
  %14 = load ptr, ptr %3, align 8, !tbaa !38
  %15 = load ptr, ptr %14, align 8, !tbaa !38
  %16 = load ptr, ptr %2, align 8, !tbaa !31
  call void %15(ptr noundef %16)
  %17 = load ptr, ptr %3, align 8, !tbaa !38
  %18 = getelementptr inbounds nuw ptr, ptr %17, i32 1
  store ptr %18, ptr %3, align 8, !tbaa !38
  br label %9, !llvm.loop !160

19:                                               ; preds = %9
  call void @llvm.lifetime.end.p0(i64 8, ptr %3) #13
  ret void
}

; Function Attrs: alwaysinline nounwind uwtable
define internal i32 @pmix_obj_update(ptr noundef %0, i32 noundef %1) #7 {
  %3 = alloca ptr, align 8
  %4 = alloca i32, align 4
  %5 = alloca i32, align 4
  store ptr %0, ptr %3, align 8, !tbaa !31
  store i32 %1, ptr %4, align 4, !tbaa !3
  call void @llvm.lifetime.start.p0(i64 4, ptr %5) #13
  %6 = load ptr, ptr %3, align 8, !tbaa !31
  %7 = getelementptr inbounds nuw %struct.pmix_object_t, ptr %6, i32 0, i32 0
  %8 = call i32 @pthread_mutex_lock(ptr noundef %7) #13
  store i32 %8, ptr %5, align 4, !tbaa !3
  %9 = load i32, ptr %5, align 4, !tbaa !3
  %10 = icmp eq i32 %9, 35
  br i1 %10, label %11, label %14

11:                                               ; preds = %2
  %12 = load i32, ptr %5, align 4, !tbaa !3
  %13 = call ptr @__errno_location() #15
  store i32 %12, ptr %13, align 4, !tbaa !3
  call void @perror(ptr noundef @.str.13)
  call void @abort() #16
  unreachable

14:                                               ; preds = %2
  %15 = load i32, ptr %4, align 4, !tbaa !3
  %16 = load ptr, ptr %3, align 8, !tbaa !31
  %17 = getelementptr inbounds nuw %struct.pmix_object_t, ptr %16, i32 0, i32 2
  %18 = load i32, ptr %17, align 8, !tbaa !16
  %19 = add nsw i32 %18, %15
  store i32 %19, ptr %17, align 8, !tbaa !16
  store i32 %19, ptr %5, align 4, !tbaa !3
  %20 = load ptr, ptr %3, align 8, !tbaa !31
  %21 = getelementptr inbounds nuw %struct.pmix_object_t, ptr %20, i32 0, i32 0
  %22 = call i32 @pthread_mutex_unlock(ptr noundef %21) #13
  %23 = load i32, ptr %5, align 4, !tbaa !3
  call void @llvm.lifetime.end.p0(i64 4, ptr %5) #13
  ret i32 %23
}

; Function Attrs: nounwind uwtable
define internal void @send_complete(ptr noundef %0, i32 noundef %1) #0 {
  %3 = alloca ptr, align 8
  %4 = alloca i32, align 4
  %5 = alloca ptr, align 8
  %6 = alloca i32, align 4
  %7 = alloca i32, align 4
  %8 = alloca ptr, align 8
  store ptr %0, ptr %3, align 8, !tbaa !61
  store i32 %1, ptr %4, align 4, !tbaa !3
  call void @llvm.lifetime.start.p0(i64 8, ptr %5) #13
  call void @llvm.lifetime.start.p0(i64 4, ptr %6) #13
  %9 = call ptr @PMIx_Data_buffer_create()
  store ptr %9, ptr %5, align 8, !tbaa !143
  %10 = load ptr, ptr %5, align 8, !tbaa !143
  %11 = call i32 @PMIx_Data_pack(ptr noundef null, ptr noundef %10, ptr noundef %3, i32 noundef 1, i16 noundef zeroext 3)
  store i32 %11, ptr %6, align 4, !tbaa !3
  %12 = load i32, ptr %6, align 4, !tbaa !3
  %13 = icmp ne i32 0, %12
  br i1 %13, label %14, label %28

14:                                               ; preds = %2
  br label %15

15:                                               ; preds = %14
  %16 = load i32, ptr %6, align 4, !tbaa !3
  %17 = icmp ne i32 -2, %16
  br i1 %17, label %18, label %21

18:                                               ; preds = %15
  %19 = load i32, ptr %6, align 4, !tbaa !3
  %20 = call ptr @PMIx_Error_string(i32 noundef %19)
  call void (i32, ptr, ...) @pmix_output(i32 noundef 0, ptr noundef @.str.6, ptr noundef %20, ptr noundef @.str.5, i32 noundef 825)
  br label %21

21:                                               ; preds = %18, %15
  br label %22

22:                                               ; preds = %21
  br label %23

23:                                               ; preds = %22
  br label %24

24:                                               ; preds = %23
  %25 = load ptr, ptr %5, align 8, !tbaa !143
  call void @PMIx_Data_buffer_release(ptr noundef %25)
  store ptr null, ptr %5, align 8, !tbaa !143
  br label %26

26:                                               ; preds = %24
  br label %27

27:                                               ; preds = %26
  store i32 1, ptr %7, align 4
  br label %106

28:                                               ; preds = %2
  %29 = load ptr, ptr %5, align 8, !tbaa !143
  %30 = call i32 @PMIx_Data_pack(ptr noundef null, ptr noundef %29, ptr noundef %4, i32 noundef 1, i16 noundef zeroext 9)
  store i32 %30, ptr %6, align 4, !tbaa !3
  %31 = load i32, ptr %6, align 4, !tbaa !3
  %32 = icmp ne i32 0, %31
  br i1 %32, label %33, label %47

33:                                               ; preds = %28
  br label %34

34:                                               ; preds = %33
  %35 = load i32, ptr %6, align 4, !tbaa !3
  %36 = icmp ne i32 -2, %35
  br i1 %36, label %37, label %40

37:                                               ; preds = %34
  %38 = load i32, ptr %6, align 4, !tbaa !3
  %39 = call ptr @PMIx_Error_string(i32 noundef %38)
  call void (i32, ptr, ...) @pmix_output(i32 noundef 0, ptr noundef @.str.6, ptr noundef %39, ptr noundef @.str.5, i32 noundef 831)
  br label %40

40:                                               ; preds = %37, %34
  br label %41

41:                                               ; preds = %40
  br label %42

42:                                               ; preds = %41
  br label %43

43:                                               ; preds = %42
  %44 = load ptr, ptr %5, align 8, !tbaa !143
  call void @PMIx_Data_buffer_release(ptr noundef %44)
  store ptr null, ptr %5, align 8, !tbaa !143
  br label %45

45:                                               ; preds = %43
  br label %46

46:                                               ; preds = %45
  store i32 1, ptr %7, align 4
  br label %106

47:                                               ; preds = %28
  br label %48

48:                                               ; preds = %47
  %49 = load i32, ptr @prte_rml_base, align 8, !tbaa !17
  %50 = icmp sge i32 %49, 0
  br i1 %50, label %51, label %65

51:                                               ; preds = %48
  %52 = load i32, ptr @prte_rml_base, align 8, !tbaa !17
  %53 = icmp slt i32 %52, 64
  br i1 %53, label %54, label %65

54:                                               ; preds = %51
  %55 = load i32, ptr @prte_rml_base, align 8, !tbaa !17
  %56 = sext i32 %55 to i64
  %57 = getelementptr inbounds [0 x %struct.pmix_output_desc_t], ptr @pmix_output_info, i64 0, i64 %56
  %58 = getelementptr inbounds nuw %struct.pmix_output_desc_t, ptr %57, i32 0, i32 2
  %59 = load i32, ptr %58, align 4, !tbaa !23
  %60 = icmp sge i32 %59, 2
  br i1 %60, label %61, label %65

61:                                               ; preds = %54
  %62 = load i32, ptr @prte_rml_base, align 8, !tbaa !17
  %63 = load i32, ptr getelementptr inbounds nuw (%struct.pmix_proc, ptr getelementptr inbounds nuw (%struct.prte_process_info_t, ptr @prte_process_info, i32 0, i32 1), i32 0, i32 1), align 4, !tbaa !151
  %64 = call ptr @pmix_util_print_rank(i32 noundef %63)
  call void (i32, ptr, ...) @pmix_output(i32 noundef %62, ptr noundef @.str.11, ptr noundef %64, i32 noundef 22, ptr noundef @.str.5, ptr noundef @__func__.send_complete, i32 noundef 835)
  br label %65

65:                                               ; preds = %61, %54, %51, %48
  %66 = load i32, ptr getelementptr inbounds nuw (%struct.pmix_proc, ptr getelementptr inbounds nuw (%struct.prte_process_info_t, ptr @prte_process_info, i32 0, i32 1), i32 0, i32 1), align 4, !tbaa !151
  %67 = load ptr, ptr %5, align 8, !tbaa !143
  %68 = call i32 @prte_rml_send_buffer_nb(i32 noundef %66, ptr noundef %67, i32 noundef 22)
  store i32 %68, ptr %6, align 4, !tbaa !3
  br label %69

69:                                               ; preds = %65
  br label %70

70:                                               ; preds = %69
  %71 = load i32, ptr %6, align 4, !tbaa !3
  %72 = icmp ne i32 0, %71
  br i1 %72, label %73, label %105

73:                                               ; preds = %70
  br label %74

74:                                               ; preds = %73
  %75 = load i32, ptr %6, align 4, !tbaa !3
  %76 = icmp ne i32 -43, %75
  br i1 %76, label %77, label %80

77:                                               ; preds = %74
  %78 = load i32, ptr %6, align 4, !tbaa !3
  %79 = call ptr @prte_strerror(i32 noundef %78)
  call void (i32, ptr, ...) @pmix_output(i32 noundef 0, ptr noundef @.str.12, ptr noundef %79, ptr noundef @.str.5, i32 noundef 837)
  br label %80

80:                                               ; preds = %77, %74
  br label %81

81:                                               ; preds = %80
  br label %82

82:                                               ; preds = %81
  br label %83

83:                                               ; preds = %82
  call void @llvm.lifetime.start.p0(i64 8, ptr %8) #13
  %84 = load ptr, ptr %5, align 8, !tbaa !143
  store ptr %84, ptr %8, align 8, !tbaa !31
  %85 = load ptr, ptr %8, align 8, !tbaa !31
  %86 = call i32 @pmix_obj_update(ptr noundef %85, i32 noundef -1)
  %87 = icmp eq i32 0, %86
  br i1 %87, label %88, label %102

88:                                               ; preds = %83
  %89 = load ptr, ptr %8, align 8, !tbaa !31
  call void @pmix_obj_run_destructors(ptr noundef %89)
  %90 = load ptr, ptr %8, align 8, !tbaa !31
  %91 = getelementptr inbounds nuw %struct.pmix_object_t, ptr %90, i32 0, i32 3
  %92 = getelementptr inbounds nuw %struct.pmix_tma, ptr %91, i32 0, i32 5
  %93 = load ptr, ptr %92, align 8, !tbaa !33
  %94 = icmp ne ptr null, %93
  br i1 %94, label %95, label %99

95:                                               ; preds = %88
  %96 = load ptr, ptr %8, align 8, !tbaa !31
  %97 = getelementptr inbounds nuw %struct.pmix_object_t, ptr %96, i32 0, i32 3
  %98 = load ptr, ptr %5, align 8, !tbaa !143
  call void @pmix_tma_free(ptr noundef %97, ptr noundef %98)
  br label %101

99:                                               ; preds = %88
  %100 = load ptr, ptr %5, align 8, !tbaa !143
  call void @free(ptr noundef %100) #13
  br label %101

101:                                              ; preds = %99, %95
  store ptr null, ptr %5, align 8, !tbaa !143
  br label %102

102:                                              ; preds = %101, %83
  call void @llvm.lifetime.end.p0(i64 8, ptr %8) #13
  br label %103

103:                                              ; preds = %102
  br label %104

104:                                              ; preds = %103
  br label %105

105:                                              ; preds = %104, %70
  store i32 0, ptr %7, align 4
  br label %106

106:                                              ; preds = %105, %46, %27
  call void @llvm.lifetime.end.p0(i64 4, ptr %6) #13
  call void @llvm.lifetime.end.p0(i64 8, ptr %5) #13
  %107 = load i32, ptr %7, align 4
  switch i32 %107, label %109 [
    i32 0, label %108
    i32 1, label %108
  ]

108:                                              ; preds = %106, %106
  ret void

109:                                              ; preds = %106
  unreachable
}