; Function Attrs: nounwind uwtable
define internal fastcc void @send_complete(ptr noundef %0, i32 noundef %1) unnamed_addr #0 {
  %3 = alloca ptr, align 8
  %4 = alloca i32, align 4
  store ptr %0, ptr %3, align 8, !tbaa !66
  store i32 %1, ptr %4, align 4, !tbaa !3
  %5 = tail call ptr @PMIx_Data_buffer_create() #16
  %6 = call i32 @PMIx_Data_pack(ptr noundef null, ptr noundef %5, ptr noundef nonnull %3, i32 noundef 1, i16 noundef zeroext 3) #16
  switch i32 %6, label %7 [
    i32 0, label %10
    i32 -2, label %9
  ]

7:                                                ; preds = %2
  %8 = call ptr @PMIx_Error_string(i32 noundef %6) #16
  call void (i32, ptr, ...) @pmix_output(i32 noundef 0, ptr noundef nonnull @.str.6, ptr noundef %8, ptr noundef nonnull @.str.5, i32 noundef 825) #16
  br label %9

9:                                                ; preds = %2, %7
  call void @PMIx_Data_buffer_release(ptr noundef %5) #16
  br label %54

10:                                               ; preds = %2
  %11 = call i32 @PMIx_Data_pack(ptr noundef null, ptr noundef %5, ptr noundef nonnull %4, i32 noundef 1, i16 noundef zeroext 9) #16
  switch i32 %11, label %12 [
    i32 0, label %15
    i32 -2, label %14
  ]

12:                                               ; preds = %10
  %13 = call ptr @PMIx_Error_string(i32 noundef %11) #16
  call void (i32, ptr, ...) @pmix_output(i32 noundef 0, ptr noundef nonnull @.str.6, ptr noundef %13, ptr noundef nonnull @.str.5, i32 noundef 831) #16
  br label %14

14:                                               ; preds = %10, %12
  call void @PMIx_Data_buffer_release(ptr noundef %5) #16
  br label %54

15:                                               ; preds = %10
  %16 = load i32, ptr @prte_rml_base, align 8, !tbaa !21
  %or.cond = icmp ult i32 %16, 64
  br i1 %or.cond, label %17, label %25

17:                                               ; preds = %15
  %18 = zext nneg i32 %16 to i64
  %19 = getelementptr inbounds nuw [0 x %struct.pmix_output_desc_t], ptr @pmix_output_info, i64 0, i64 %18, i32 2
  %20 = load i32, ptr %19, align 4, !tbaa !27
  %21 = icmp sgt i32 %20, 1
  br i1 %21, label %22, label %25

22:                                               ; preds = %17
  %23 = load i32, ptr getelementptr inbounds nuw (i8, ptr @prte_process_info, i64 516), align 4, !tbaa !137
  %24 = call ptr @pmix_util_print_rank(i32 noundef %23) #16
  call void (i32, ptr, ...) @pmix_output(i32 noundef %16, ptr noundef nonnull @.str.11, ptr noundef %24, i32 noundef 22, ptr noundef nonnull @.str.5, ptr noundef nonnull @__func__.send_complete, i32 noundef 835) #16
  br label %25

25:                                               ; preds = %22, %17, %15
  %26 = load i32, ptr getelementptr inbounds nuw (i8, ptr @prte_process_info, i64 516), align 4, !tbaa !137
  %27 = call i32 @prte_rml_send_buffer_nb(i32 noundef %26, ptr noundef %5, i32 noundef 22) #16
  switch i32 %27, label %28 [
    i32 0, label %54
    i32 -43, label %30
  ]

28:                                               ; preds = %25
  %29 = call ptr @prte_strerror(i32 noundef %27) #16
  call void (i32, ptr, ...) @pmix_output(i32 noundef 0, ptr noundef nonnull @.str.12, ptr noundef %29, ptr noundef nonnull @.str.5, i32 noundef 837) #16
  br label %30

30:                                               ; preds = %25, %28
  %31 = call i32 @pthread_mutex_lock(ptr noundef %5) #16
  %32 = icmp eq i32 %31, 35
  br i1 %32, label %33, label %pmix_obj_update.exit

33:                                               ; preds = %30
  %34 = tail call ptr @__errno_location() #17
  store i32 35, ptr %34, align 4, !tbaa !3
  call void @perror(ptr noundef nonnull @.str.13) #18
  call void @abort() #19
  unreachable

pmix_obj_update.exit:                             ; preds = %30
  %35 = getelementptr inbounds nuw i8, ptr %5, i64 48
  %36 = load i32, ptr %35, align 8, !tbaa !16
  %37 = add nsw i32 %36, -1
  store i32 %37, ptr %35, align 8, !tbaa !16
  %38 = call i32 @pthread_mutex_unlock(ptr noundef %5) #16
  %39 = icmp eq i32 %37, 0
  br i1 %39, label %40, label %54

40:                                               ; preds = %pmix_obj_update.exit
  %41 = getelementptr inbounds nuw i8, ptr %5, i64 40
  %42 = load ptr, ptr %41, align 8, !tbaa !13
  %43 = getelementptr inbounds nuw i8, ptr %42, i64 48
  %44 = load ptr, ptr %43, align 8, !tbaa !38
  %45 = load ptr, ptr %44, align 8, !tbaa !18
  %.not6.i = icmp eq ptr %45, null
  br i1 %.not6.i, label %pmix_obj_run_destructors.exit, label %.lr.ph.i

.lr.ph.i:                                         ; preds = %40, %.lr.ph.i
  %46 = phi ptr [ %48, %.lr.ph.i ], [ %45, %40 ]
  %.07.i = phi ptr [ %47, %.lr.ph.i ], [ %44, %40 ]
  call void %46(ptr noundef %5) #16
  %47 = getelementptr inbounds nuw i8, ptr %.07.i, i64 8
  %48 = load ptr, ptr %47, align 8, !tbaa !18
  %.not.i = icmp eq ptr %48, null
  br i1 %.not.i, label %pmix_obj_run_destructors.exit, label %.lr.ph.i, !llvm.loop !39

pmix_obj_run_destructors.exit:                    ; preds = %.lr.ph.i, %40
  %49 = getelementptr inbounds nuw i8, ptr %5, i64 96
  %50 = load ptr, ptr %49, align 8, !tbaa !40
  %.not27 = icmp eq ptr %50, null
  br i1 %.not27, label %53, label %51

51:                                               ; preds = %pmix_obj_run_destructors.exit
  %52 = getelementptr inbounds nuw i8, ptr %5, i64 56
  call void %50(ptr noundef nonnull %52, ptr noundef nonnull %5) #16
  br label %54

53:                                               ; preds = %pmix_obj_run_destructors.exit
  call void @free(ptr noundef nonnull %5) #16
  br label %54

54:                                               ; preds = %25, %51, %53, %pmix_obj_update.exit, %14, %9
  ret void
}